; Function Attrs: mustprogress nofree norecurse nosync nounwind memory(readwrite, inaccessiblemem: none) uwtable
define hidden void @_ZN2cv7barcode11fillCounterERKSt6vectorIhSaIhEEjRNS0_7CounterE(ptr nocapture noundef nonnull readonly align 8 dereferenceable(24) %0, i32 noundef %1, ptr nocapture noundef nonnull align 8 dereferenceable(28) %2) local_unnamed_addr #4 {
  %4 = getelementptr inbounds i8, ptr %2, i64 8
  %5 = load ptr, ptr %4, align 8
  %6 = ptrtoint ptr %5 to i64
  %7 = load ptr, ptr %2, align 8
  %8 = ptrtoint ptr %7 to i64
  %9 = sub i64 %6, %8
  %10 = ashr exact i64 %9, 2
  %.not5.i.i.i.i = icmp eq ptr %7, %5
  br i1 %.not5.i.i.i.i, label %_ZSt4fillIN9__gnu_cxx17__normal_iteratorIPiSt6vectorIiSaIiEEEEiEvT_S7_RKT0_.exit, label %.lr.ph.i.i.i.i.preheader

.lr.ph.i.i.i.i.preheader:                         ; preds = %3
  %11 = add i64 %6, -4
  %12 = sub i64 %11, %8
  %13 = and i64 %12, -4
  %14 = add i64 %13, 4
  tail call void @llvm.memset.p0.i64(ptr align 4 %7, i8 0, i64 %14, i1 false)
  br label %_ZSt4fillIN9__gnu_cxx17__normal_iteratorIPiSt6vectorIiSaIiEEEEiEvT_S7_RKT0_.exit

_ZSt4fillIN9__gnu_cxx17__normal_iteratorIPiSt6vectorIiSaIiEEEEiEvT_S7_RKT0_.exit: ; preds = %.lr.ph.i.i.i.i.preheader, %3
  %15 = getelementptr inbounds i8, ptr %2, i64 24
  store i32 0, ptr %15, align 8
  %16 = getelementptr inbounds i8, ptr %0, i64 8
  %17 = load ptr, ptr %16, align 8
  %18 = load ptr, ptr %0, align 8
  %19 = ptrtoint ptr %17 to i64
  %20 = ptrtoint ptr %18 to i64
  %21 = sub i64 %19, %20
  %22 = zext i32 %1 to i64
  %23 = icmp ugt i64 %21, %22
  br i1 %23, label %.lr.ph.preheader, label %._crit_edge

.lr.ph.preheader:                                 ; preds = %_ZSt4fillIN9__gnu_cxx17__normal_iteratorIPiSt6vectorIiSaIiEEEEiEvT_S7_RKT0_.exit
  %24 = getelementptr inbounds i8, ptr %18, i64 %22
  %25 = load i8, ptr %24, align 1
  br label %.lr.ph

.lr.ph:                                           ; preds = %.lr.ph.preheader, %49
  %26 = phi i64 [ %51, %49 ], [ %22, %.lr.ph.preheader ]
  %.031 = phi i32 [ %.1, %49 ], [ 0, %.lr.ph.preheader ]
  %.02330 = phi i8 [ %.124, %49 ], [ %25, %.lr.ph.preheader ]
  %.02529 = phi i32 [ %50, %49 ], [ %1, %.lr.ph.preheader ]
  %27 = load ptr, ptr %0, align 8
  %28 = getelementptr inbounds i8, ptr %27, i64 %26
  %29 = load i8, ptr %28, align 1
  %30 = icmp eq i8 %29, %.02330
  br i1 %30, label %31, label %39

31:                                               ; preds = %.lr.ph
  %32 = zext i32 %.031 to i64
  %33 = load ptr, ptr %2, align 8
  %34 = getelementptr inbounds i32, ptr %33, i64 %32
  %35 = load i32, ptr %34, align 4
  %36 = add nsw i32 %35, 1
  store i32 %36, ptr %34, align 4
  %37 = load i32, ptr %15, align 8
  %38 = add i32 %37, 1
  store i32 %38, ptr %15, align 8
  br label %49

39:                                               ; preds = %.lr.ph
  %40 = add i32 %.031, 1
  %41 = zext i32 %40 to i64
  %42 = icmp eq i64 %10, %41
  br i1 %42, label %._crit_edge, label %43

43:                                               ; preds = %39
  %44 = load ptr, ptr %2, align 8
  %45 = getelementptr inbounds i32, ptr %44, i64 %41
  store i32 1, ptr %45, align 4
  %46 = load i32, ptr %15, align 8
  %47 = add i32 %46, 1
  store i32 %47, ptr %15, align 8
  %48 = xor i8 %.02330, -1
  br label %49

49:                                               ; preds = %43, %31
  %.124 = phi i8 [ %.02330, %31 ], [ %48, %43 ]
  %.1 = phi i32 [ %.031, %31 ], [ %40, %43 ]
  %50 = add i32 %.02529, 1
  %51 = zext i32 %50 to i64
  %52 = icmp ugt i64 %21, %51
  br i1 %52, label %.lr.ph, label %._crit_edge, !llvm.loop !12

._crit_edge:                                      ; preds = %49, %39, %_ZSt4fillIN9__gnu_cxx17__normal_iteratorIPiSt6vectorIiSaIiEEEEiEvT_S7_RKT0_.exit
  ret void
}